target datalayout = "e-m:e-p270:32:32-p271:32:32-p272:64:64-i64:64-i128:128-f80:128-n8:16:32:64-S128"
target triple = "x86_64-pc-linux-gnu"

%struct.lexbor_avl = type { ptr, ptr }

; Function Attrs: nounwind uwtable
define hidden i32 @lexbor_avl_init(ptr noundef %0, i64 noundef %1, i64 noundef %2) #0 {
  %4 = alloca i32, align 4
  %5 = alloca ptr, align 8
  %6 = alloca i64, align 8
  %7 = alloca i64, align 8
  store ptr %0, ptr %5, align 8
  store i64 %1, ptr %6, align 8
  store i64 %2, ptr %7, align 8
  %8 = load ptr, ptr %5, align 8
  %9 = icmp eq ptr %8, null
  br i1 %9, label %10, label %11

10:                                               ; preds = %3
  store i32 3, ptr %4, align 4
  br label %37

11:                                               ; preds = %3
  %12 = load i64, ptr %6, align 8
  %13 = icmp eq i64 %12, 0
  br i1 %13, label %20, label %14

14:                                               ; preds = %11
  %15 = load i64, ptr %7, align 8
  %16 = icmp ne i64 %15, 0
  br i1 %16, label %17, label %21

17:                                               ; preds = %14
  %18 = load i64, ptr %7, align 8
  %19 = icmp ult i64 %18, 48
  br i1 %19, label %20, label %21

20:                                               ; preds = %17, %11
  store i32 9, ptr %4, align 4
  br label %37

21:                                               ; preds = %17, %14
  %22 = load i64, ptr %7, align 8
  %23 = icmp eq i64 %22, 0
  br i1 %23, label %24, label %25

24:                                               ; preds = %21
  store i64 48, ptr %7, align 8
  br label %25

25:                                               ; preds = %24, %21
  %26 = load ptr, ptr %5, align 8
  %27 = getelementptr inbounds %struct.lexbor_avl, ptr %26, i32 0, i32 1
  store ptr null, ptr %27, align 8
  %28 = call ptr @lexbor_dobject_create()
  %29 = load ptr, ptr %5, align 8
  %30 = getelementptr inbounds %struct.lexbor_avl, ptr %29, i32 0, i32 0
  store ptr %28, ptr %30, align 8
  %31 = load ptr, ptr %5, align 8
  %32 = getelementptr inbounds %struct.lexbor_avl, ptr %31, i32 0, i32 0
  %33 = load ptr, ptr %32, align 8
  %34 = load i64, ptr %6, align 8
  %35 = load i64, ptr %7, align 8
  %36 = call i32 @lexbor_dobject_init(ptr noundef %33, i64 noundef %34, i64 noundef %35)
  store i32 %36, ptr %4, align 4
  br label %37

37:                                               ; preds = %25, %20, %10
  %38 = load i32, ptr %4, align 4
  ret i32 %38
}