; Function Attrs: nounwind uwtable
define hidden i32 @lexbor_avl_init(ptr noundef writeonly %0, i64 noundef %1, i64 noundef %2) local_unnamed_addr #0 {
  %4 = icmp eq ptr %0, null
  br i1 %4, label %13, label %5

5:                                                ; preds = %3
  %6 = icmp eq i64 %1, 0
  %7 = add i64 %2, -1
  %or.cond = icmp ult i64 %7, 47
  %or.cond13 = or i1 %6, %or.cond
  br i1 %or.cond13, label %13, label %8

8:                                                ; preds = %5
  %9 = icmp eq i64 %2, 0
  %spec.store.select = select i1 %9, i64 48, i64 %2
  %10 = getelementptr inbounds i8, ptr %0, i64 8
  store ptr null, ptr %10, align 8
  %11 = tail call ptr @lexbor_dobject_create() #8
  store ptr %11, ptr %0, align 8
  %12 = tail call i32 @lexbor_dobject_init(ptr noundef %11, i64 noundef %1, i64 noundef %spec.store.select) #8
  br label %13

13:                                               ; preds = %5, %3, %8
  %.0 = phi i32 [ %12, %8 ], [ 3, %3 ], [ 9, %5 ]
  ret i32 %.0
}